target datalayout = "e-m:e-p270:32:32-p271:32:32-p272:64:64-i64:64-i128:128-f80:128-n8:16:32:64-S128"
target triple = "x86_64-pc-linux-gnu"

@stderr = external global ptr, align 8
@.str.1 = private unnamed_addr constant [74 x i8] c"toolutil/getCPTrieSize error: umutablecptrie_buildImmutable() failed: %s\0A\00", align 1
@.str.2 = private unnamed_addr constant [74 x i8] c"toolutil/getCPTrieSize error: ucptrie_toBinary() failed: %s (length %ld)\0A\00", align 1

; Function Attrs: inlinehint mustprogress nounwind uwtable
define internal noundef signext i8 @_ZL9U_FAILURE10UErrorCode(i32 noundef %0) #7 {
  %2 = alloca i32, align 4
  store i32 %0, ptr %2, align 4, !tbaa !29
  %3 = load i32, ptr %2, align 4, !tbaa !29
  %4 = icmp sgt i32 %3, 0
  %5 = zext i1 %4 to i8
  ret i8 %5
}

; Function Attrs: mustprogress uwtable
define noundef i32 @_ZN6icu_778toolutil13getCPTrieSizeEP14UMutableCPTrie11UCPTrieType17UCPTrieValueWidth(ptr noundef %0, i32 noundef %1, i32 noundef %2) #1 {
  %4 = alloca i32, align 4
  %5 = alloca ptr, align 8
  %6 = alloca i32, align 4
  %7 = alloca i32, align 4
  %8 = alloca i32, align 4
  %9 = alloca ptr, align 8
  %10 = alloca i32, align 4
  %11 = alloca [100000 x i8], align 16
  %12 = alloca i32, align 4
  store ptr %0, ptr %5, align 8, !tbaa !20
  store i32 %1, ptr %6, align 4, !tbaa !32
  store i32 %2, ptr %7, align 4, !tbaa !34
  call void @llvm.lifetime.start.p0(i64 4, ptr %8) #14
  store i32 0, ptr %8, align 4, !tbaa !29
  call void @llvm.lifetime.start.p0(i64 8, ptr %9) #14
  %13 = load ptr, ptr %5, align 8, !tbaa !20
  %14 = load i32, ptr %6, align 4, !tbaa !32
  %15 = load i32, ptr %7, align 4, !tbaa !34
  %16 = call ptr @umutablecptrie_buildImmutable_77(ptr noundef %13, i32 noundef %14, i32 noundef %15, ptr noundef %8)
  store ptr %16, ptr %9, align 8, !tbaa !36
  %17 = load i32, ptr %8, align 4, !tbaa !29
  %18 = call noundef signext i8 @_ZL9U_FAILURE10UErrorCode(i32 noundef %17)
  %19 = icmp ne i8 %18, 0
  br i1 %19, label %20, label %25

20:                                               ; preds = %3
  %21 = load ptr, ptr @stderr, align 8, !tbaa !15
  %22 = load i32, ptr %8, align 4, !tbaa !29
  %23 = call ptr @u_errorName_77(i32 noundef %22)
  %24 = call i32 (ptr, ptr, ...) @fprintf(ptr noundef %21, ptr noundef @.str.1, ptr noundef %23) #14
  store i32 -1, ptr %4, align 4
  store i32 1, ptr %10, align 4
  br label %46

25:                                               ; preds = %3
  call void @llvm.lifetime.start.p0(i64 100000, ptr %11) #14
  call void @llvm.lifetime.start.p0(i64 4, ptr %12) #14
  %26 = load ptr, ptr %9, align 8, !tbaa !36
  %27 = getelementptr inbounds [100000 x i8], ptr %11, i64 0, i64 0
  %28 = call i32 @ucptrie_toBinary_77(ptr noundef %26, ptr noundef %27, i32 noundef 100000, ptr noundef %8)
  store i32 %28, ptr %12, align 4, !tbaa !22
  %29 = load ptr, ptr %9, align 8, !tbaa !36
  call void @ucptrie_close_77(ptr noundef %29)
  %30 = load i32, ptr %8, align 4, !tbaa !29
  %31 = call noundef signext i8 @_ZL9U_FAILURE10UErrorCode(i32 noundef %30)
  %32 = icmp ne i8 %31, 0
  br i1 %32, label %33, label %43

33:                                               ; preds = %25
  %34 = load i32, ptr %8, align 4, !tbaa !29
  %35 = icmp ne i32 %34, 15
  br i1 %35, label %36, label %43

36:                                               ; preds = %33
  %37 = load ptr, ptr @stderr, align 8, !tbaa !15
  %38 = load i32, ptr %8, align 4, !tbaa !29
  %39 = call ptr @u_errorName_77(i32 noundef %38)
  %40 = load i32, ptr %12, align 4, !tbaa !22
  %41 = sext i32 %40 to i64
  %42 = call i32 (ptr, ptr, ...) @fprintf(ptr noundef %37, ptr noundef @.str.2, ptr noundef %39, i64 noundef %41) #14
  store i32 -1, ptr %4, align 4
  store i32 1, ptr %10, align 4
  br label %45

43:                                               ; preds = %33, %25
  %44 = load i32, ptr %12, align 4, !tbaa !22
  store i32 %44, ptr %4, align 4
  store i32 1, ptr %10, align 4
  br label %45

45:                                               ; preds = %43, %36
  call void @llvm.lifetime.end.p0(i64 4, ptr %12) #14
  call void @llvm.lifetime.end.p0(i64 100000, ptr %11) #14
  br label %46

46:                                               ; preds = %45, %20
  call void @llvm.lifetime.end.p0(i64 8, ptr %9) #14
  call void @llvm.lifetime.end.p0(i64 4, ptr %8) #14
  %47 = load i32, ptr %4, align 4
  ret i32 %47
}