; Function Attrs: mustprogress uwtable
define noundef i32 @_ZN6icu_778toolutil13getCPTrieSizeEP14UMutableCPTrie11UCPTrieType17UCPTrieValueWidth(ptr noundef %0, i32 noundef %1, i32 noundef %2) local_unnamed_addr #8 {
  %4 = alloca i32, align 4
  %5 = alloca [100000 x i8], align 16
  call void @llvm.lifetime.start.p0(i64 4, ptr nonnull %4) #23
  store i32 0, ptr %4, align 4, !tbaa !16
  %6 = call ptr @umutablecptrie_buildImmutable_77(ptr noundef %0, i32 noundef %1, i32 noundef %2, ptr noundef nonnull %4)
  %7 = load i32, ptr %4, align 4, !tbaa !16
  %8 = icmp slt i32 %7, 1
  br i1 %8, label %13, label %9

9:                                                ; preds = %3
  %10 = load ptr, ptr @stderr, align 8, !tbaa !10
  %11 = call ptr @u_errorName_77(i32 noundef %7)
  %12 = call i32 (ptr, ptr, ...) @fprintf(ptr noundef %10, ptr noundef nonnull @.str.1, ptr noundef %11) #25
  br label %24

13:                                               ; preds = %3
  call void @llvm.lifetime.start.p0(i64 100000, ptr nonnull %5) #23
  %14 = call i32 @ucptrie_toBinary_77(ptr noundef %6, ptr noundef nonnull %5, i32 noundef 100000, ptr noundef nonnull %4)
  call void @ucptrie_close_77(ptr noundef %6)
  %15 = load i32, ptr %4, align 4, !tbaa !16
  %16 = icmp sgt i32 %15, 0
  %17 = icmp ne i32 %15, 15
  %or.cond = and i1 %16, %17
  br i1 %or.cond, label %18, label %23

18:                                               ; preds = %13
  %19 = load ptr, ptr @stderr, align 8, !tbaa !10
  %20 = call ptr @u_errorName_77(i32 noundef %15)
  %21 = sext i32 %14 to i64
  %22 = call i32 (ptr, ptr, ...) @fprintf(ptr noundef %19, ptr noundef nonnull @.str.2, ptr noundef %20, i64 noundef %21) #25
  br label %23

23:                                               ; preds = %13, %18
  %.1 = phi i32 [ -1, %18 ], [ %14, %13 ]
  call void @llvm.lifetime.end.p0(i64 100000, ptr nonnull %5) #23
  br label %24

24:                                               ; preds = %23, %9
  %.0 = phi i32 [ -1, %9 ], [ %.1, %23 ]
  call void @llvm.lifetime.end.p0(i64 4, ptr nonnull %4) #23
  ret i32 %.0
}